(lp1
(lp2
I8
aI0
aI0
aI0
aa(lp3
I0
aI0
aI0
aI0
aa(lp4
I3
aI0
aI0
aI0
aa(lp5
I4
aI0
aI0
aI0
aa(lp6
I4
aI0
aI0
aI0
aa(lp7
I6
aI0
aI0
aI0
aa(lp8
I3
aI0
aI0
aI0
aa(lp9
I0
aI0
aI0
aI0
aa(lp10
I9
aI0
aI0
aI4
aa(lp11
I8
aI0
aI0
aI0
aa(lp12
I4
aI0
aI0
aI0
aa(lp13
I5
aI0
aI0
aI0
aa(lp14
I5
aI0
aI0
aI0
aa(lp15
I12
aI0
aI0
aI0
aa(lp16
I0
aI0
aI0
aI0
aa(lp17
I3
aI0
aI0
aI0
aa(lp18
I3
aI0
aI0
aI0
aa(lp19
I3
aI0
aI0
aI0
aa(lp20
I3
aI0
aI0
aI0
aa(lp21
I3
aI0
aI0
aI0
aa(lp22
I0
aI0
aI0
aI0
aa(lp23
I7
aI0
aI0
aI0
aa(lp24
I10
aI0
aI0
aI0
aa(lp25
I5
aI0
aI0
aI0
aa(lp26
I3
aI0
aI0
aI0
aa(lp27
I3
aI0
aI0
aI0
aa(lp28
I2
aI0
aI0
aI0
aa(lp29
I9
aI0
aI0
aI0
aa(lp30
I5
aI0
aI0
aI0
aa(lp31
I10
aI0
aI0
aI0
aa(lp32
I0
aI0
aI0
aI0
aa(lp33
I0
aI0
aI0
aI0
aa(lp34
I0
aI0
aI0
aI0
aa(lp35
I16
aI0
aI0
aI0
aa(lp36
I8
aI0
aI0
aI0
aa(lp37
I8
aI0
aI0
aI0
aa(lp38
I0
aI0
aI0
aI0
aa(lp39
I8
aI0
aI0
aI0
aa(lp40
I4
aI0
aI0
aI0
aa(lp41
I6
aI0
aI0
aI0
aa(lp42
I6
aI0
aI0
aI0
aa(lp43
I4
aI0
aI0
aI0
aa(lp44
I6
aI0
aI0
aI0
aa(lp45
I10
aI0
aI0
aI2
aa(lp46
I3
aI0
aI0
aI0
aa(lp47
I3
aI0
aI0
aI0
aa(lp48
I8
aI0
aI0
aI0
aa(lp49
I5
aI0
aI0
aI0
aa(lp50
I7
aI0
aI0
aI0
aa(lp51
I0
aI0
aI0
aI0
aa(lp52
I0
aI0
aI0
aI0
aa(lp53
I6
aI0
aI0
aI0
aa(lp54
I10
aI0
aI0
aI0
aa(lp55
I0
aI0
aI0
aI0
aa(lp56
I0
aI0
aI0
aI0
aa(lp57
I3
aI0
aI0
aI0
aa(lp58
I0
aI0
aI0
aI0
aa(lp59
I7
aI0
aI0
aI0
aa(lp60
I9
aI0
aI0
aI0
aa(lp61
I8
aI0
aI0
aI0
aa(lp62
I0
aI0
aI0
aI0
aa(lp63
I0
aI0
aI0
aI0
aa.