(lp1
(lp2
I3
aI0
aI0
aI0
aa(lp3
I6
aI0
aI0
aI0
aa(lp4
I2
aI0
aI0
aI0
aa(lp5
I3
aI0
aI0
aI0
aa(lp6
I6
aI0
aI0
aI0
aa(lp7
I4
aI0
aI0
aI0
aa(lp8
I2
aI0
aI0
aI0
aa(lp9
I10
aI0
aI0
aI0
aa(lp10
I3
aI0
aI0
aI0
aa(lp11
I3
aI0
aI0
aI0
aa(lp12
I4
aI0
aI0
aI0
aa(lp13
I2
aI0
aI0
aI0
aa(lp14
I3
aI0
aI0
aI0
aa(lp15
I5
aI0
aI0
aI0
aa(lp16
I3
aI0
aI0
aI0
aa(lp17
I3
aI0
aI0
aI0
aa(lp18
I5
aI0
aI0
aI0
aa(lp19
I3
aI0
aI0
aI0
aa(lp20
I2
aI0
aI0
aI0
aa(lp21
I3
aI0
aI0
aI0
aa(lp22
I3
aI0
aI0
aI0
aa(lp23
I8
aI0
aI0
aI0
aa(lp24
I7
aI0
aI0
aI0
aa(lp25
I3
aI0
aI0
aI0
aa(lp26
I3
aI0
aI0
aI0
aa(lp27
I6
aI0
aI0
aI0
aa(lp28
I3
aI0
aI0
aI0
aa(lp29
I8
aI0
aI0
aI0
aa(lp30
I3
aI0
aI0
aI0
aa(lp31
I6
aI0
aI0
aI0
aa(lp32
I7
aI0
aI0
aI0
aa(lp33
I3
aI0
aI0
aI0
aa(lp34
I6
aI0
aI0
aI0
aa(lp35
I3
aI0
aI0
aI0
aa(lp36
I4
aI0
aI0
aI0
aa(lp37
I10
aI0
aI0
aI0
aa(lp38
I7
aI0
aI0
aI0
aa(lp39
I3
aI0
aI0
aI0
aa(lp40
I3
aI0
aI0
aI0
aa(lp41
I6
aI0
aI0
aI0
aa(lp42
I3
aI0
aI0
aI0
aa(lp43
I6
aI0
aI0
aI0
aa(lp44
I3
aI0
aI0
aI0
aa(lp45
I8
aI0
aI0
aI0
aa(lp46
I3
aI0
aI0
aI0
aa(lp47
I16
aI0
aI0
aI0
aa(lp48
I3
aI0
aI0
aI0
aa(lp49
I7
aI0
aI0
aI0
aa(lp50
I7
aI0
aI0
aI0
aa(lp51
I8
aI0
aI0
aI0
aa(lp52
I4
aI0
aI0
aI0
aa(lp53
I2
aI0
aI0
aI0
aa(lp54
I5
aI0
aI0
aI0
aa(lp55
I13
aI0
aI0
aI0
aa(lp56
I3
aI0
aI0
aI0
aa(lp57
I4
aI0
aI0
aI0
aa(lp58
I4
aI0
aI0
aI0
aa(lp59
I6
aI0
aI0
aI0
aa(lp60
I3
aI0
aI0
aI0
aa(lp61
I3
aI0
aI0
aI0
aa(lp62
I3
aI0
aI0
aI0
aa(lp63
I5
aI0
aI0
aI0
aa(lp64
I3
aI0
aI0
aI0
aa(lp65
I3
aI0
aI0
aI0
aa.