(lp1
(lp2
I20
aI0
aI0
aI1
aa(lp3
I9
aI0
aI0
aI0
aa(lp4
I19
aI0
aI0
aI0
aa(lp5
I6
aI0
aI0
aI0
aa(lp6
I11
aI0
aI0
aI0
aa(lp7
I3
aI0
aI0
aI0
aa(lp8
I11
aI0
aI0
aI0
aa(lp9
I4
aI0
aI0
aI0
aa(lp10
I5
aI0
aI0
aI0
aa(lp11
I3
aI0
aI0
aI0
aa(lp12
I7
aI0
aI0
aI0
aa(lp13
I8
aI0
aI0
aI0
aa(lp14
I7
aI0
aI0
aI0
aa(lp15
I3
aI0
aI0
aI0
aa(lp16
I4
aI0
aI0
aI0
aa(lp17
I5
aI0
aI0
aI0
aa(lp18
I13
aI0
aI0
aI0
aa(lp19
I11
aI0
aI0
aI0
aa(lp20
I8
aI0
aI0
aI0
aa(lp21
I3
aI0
aI0
aI0
aa(lp22
I9
aI0
aI0
aI0
aa(lp23
I3
aI0
aI0
aI0
aa(lp24
I6
aI0
aI0
aI0
aa(lp25
I6
aI0
aI0
aI0
aa(lp26
I3
aI0
aI0
aI0
aa(lp27
I6
aI0
aI0
aI0
aa(lp28
I5
aI0
aI0
aI0
aa(lp29
I3
aI0
aI0
aI0
aa(lp30
I4
aI0
aI0
aI0
aa(lp31
I4
aI0
aI0
aI0
aa(lp32
I8
aI0
aI0
aI0
aa(lp33
I4
aI0
aI0
aI0
aa(lp34
I2
aI0
aI0
aI0
aa(lp35
I8
aI0
aI0
aI0
aa(lp36
I2
aI0
aI0
aI0
aa(lp37
I3
aI0
aI0
aI0
aa(lp38
I13
aI0
aI0
aI0
aa(lp39
I5
aI0
aI0
aI0
aa(lp40
I8
aI0
aI0
aI0
aa(lp41
I3
aI0
aI0
aI0
aa(lp42
I3
aI0
aI0
aI0
aa(lp43
I9
aI0
aI0
aI0
aa(lp44
I2
aI0
aI0
aI0
aa(lp45
I6
aI0
aI0
aI0
aa(lp46
I5
aI0
aI0
aI0
aa(lp47
I6
aI0
aI0
aI0
aa(lp48
I6
aI0
aI0
aI0
aa(lp49
I2
aI0
aI0
aI0
aa(lp50
I3
aI0
aI0
aI0
aa(lp51
I5
aI0
aI0
aI0
aa(lp52
I22
aI0
aI0
aI0
aa(lp53
I2
aI0
aI0
aI0
aa(lp54
I9
aI0
aI0
aI0
aa(lp55
I5
aI0
aI0
aI0
aa(lp56
I5
aI0
aI0
aI0
aa(lp57
I3
aI0
aI0
aI0
aa(lp58
I6
aI0
aI0
aI0
aa(lp59
I3
aI0
aI0
aI0
aa(lp60
I8
aI0
aI0
aI0
aa(lp61
I3
aI0
aI0
aI0
aa.